; Function Attrs: nounwind sspstrong uwtable
define internal fastcc i64 @r_fixup_compat(i64 noundef %0, ptr %.72.val) unnamed_addr #0 {
  %2 = alloca i64, align 8
  %3 = alloca i64, align 8
  call void @llvm.lifetime.start.p0(i64 8, ptr nonnull %2) #22
  call void @llvm.lifetime.start.p0(i64 8, ptr nonnull %3) #22
  store i64 %0, ptr %3, align 8, !tbaa !7
  %.not = icmp eq ptr %.72.val, null
  br i1 %.not, label %33, label %4

4:                                                ; preds = %1
  %5 = call i32 @rb_st_delete(ptr noundef nonnull %.72.val, ptr noundef nonnull %3, ptr noundef nonnull %2) #22
  %.not10 = icmp eq i32 %5, 0
  br i1 %.not10, label %33, label %6

6:                                                ; preds = %4
  %7 = load i64, ptr %2, align 8, !tbaa !7
  %8 = icmp eq i64 %7, 0
  %9 = and i64 %7, 7
  %10 = icmp ne i64 %9, 0
  %11 = or i1 %8, %10
  br i1 %11, label %15, label %12

12:                                               ; preds = %6
  %13 = inttoptr i64 %7 to ptr
  %14 = getelementptr inbounds nuw i8, ptr %13, i64 8
  br label %rb_class_of.exit

15:                                               ; preds = %6
  switch i64 %7, label %18 [
    i64 0, label %rb_class_of.exit
    i64 4, label %16
    i64 20, label %17
  ]

16:                                               ; preds = %15
  br label %rb_class_of.exit

17:                                               ; preds = %15
  br label %rb_class_of.exit

18:                                               ; preds = %15
  %19 = and i64 %7, 1
  %.not.i = icmp eq i64 %19, 0
  br i1 %.not.i, label %20, label %rb_class_of.exit

20:                                               ; preds = %18
  %21 = and i64 %7, 254
  %22 = icmp eq i64 %21, 12
  %spec.select.i = select i1 %22, ptr @rb_cSymbol, ptr @rb_cFloat
  br label %rb_class_of.exit

rb_class_of.exit:                                 ; preds = %12, %15, %16, %17, %18, %20
  %.0.in.i = phi ptr [ @rb_cNilClass, %16 ], [ @rb_cTrueClass, %17 ], [ %14, %12 ], [ @rb_cFalseClass, %15 ], [ @rb_cInteger, %18 ], [ %spec.select.i, %20 ]
  %.0.i = load i64, ptr %.0.in.i, align 8, !tbaa !7
  %23 = call ptr @rb_get_alloc_func(i64 noundef %.0.i) #22
  %24 = load ptr, ptr @compat_allocator_tbl, align 8, !tbaa !11
  %25 = ptrtoint ptr %23 to i64
  %26 = call i32 @rb_st_lookup(ptr noundef %24, i64 noundef %25, ptr noundef nonnull %2) #22
  %.not11 = icmp eq i32 %26, 0
  br i1 %.not11, label %33, label %27

27:                                               ; preds = %rb_class_of.exit
  %28 = load i64, ptr %2, align 8, !tbaa !7
  %29 = inttoptr i64 %28 to ptr
  %30 = getelementptr inbounds nuw i8, ptr %29, i64 24
  %31 = load ptr, ptr %30, align 8, !tbaa !16
  %32 = call i64 %31(i64 noundef %7, i64 noundef %0) #22
  br label %33

33:                                               ; preds = %rb_class_of.exit, %27, %4, %1
  %.0 = phi i64 [ %0, %4 ], [ %0, %1 ], [ %7, %27 ], [ %7, %rb_class_of.exit ]
  call void @llvm.lifetime.end.p0(i64 8, ptr nonnull %3) #22
  call void @llvm.lifetime.end.p0(i64 8, ptr nonnull %2) #22
  ret i64 %.0
}